; Function Attrs: mustprogress nounwind uwtable
define dso_local void @_Z41cmCTestResourceGroups_yypush_buffer_stateP15yy_buffer_statePv(ptr noundef %0, ptr noundef captures(none) %1) local_unnamed_addr #5 {
  %3 = icmp eq ptr %0, null
  br i1 %3, label %62, label %4

4:                                                ; preds = %2
  %5 = getelementptr inbounds nuw i8, ptr %1, i64 40
  %6 = load ptr, ptr %5, align 8, !tbaa !20
  %.not.i = icmp eq ptr %6, null
  br i1 %.not.i, label %7, label %13

7:                                                ; preds = %4
  %8 = tail call noalias noundef dereferenceable_or_null(8) ptr @malloc(i64 noundef 8) #33
  store ptr %8, ptr %5, align 8, !tbaa !20
  %.not28.i = icmp eq ptr %8, null
  br i1 %.not28.i, label %9, label %10

9:                                                ; preds = %7
  tail call fastcc void @_ZL14yy_fatal_errorPKcPv(ptr noundef nonnull @.str.13) #34
  unreachable

10:                                               ; preds = %7
  store i64 0, ptr %8, align 8
  %11 = getelementptr inbounds nuw i8, ptr %1, i64 32
  store i64 1, ptr %11, align 8, !tbaa !24
  %12 = getelementptr inbounds nuw i8, ptr %1, i64 24
  store i64 0, ptr %12, align 8, !tbaa !21
  br label %_ZL43cmCTestResourceGroups_yyensure_buffer_stackPv.exit

13:                                               ; preds = %4
  %14 = getelementptr inbounds nuw i8, ptr %1, i64 24
  %15 = load i64, ptr %14, align 8, !tbaa !21
  %16 = getelementptr inbounds nuw i8, ptr %1, i64 32
  %17 = load i64, ptr %16, align 8, !tbaa !24
  %18 = add i64 %17, -1
  %.not29.i = icmp ult i64 %15, %18
  br i1 %.not29.i, label %_ZL43cmCTestResourceGroups_yyensure_buffer_stackPv.exit, label %19

19:                                               ; preds = %13
  %20 = add i64 %17, 8
  %21 = shl i64 %20, 3
  %22 = tail call noalias noundef ptr @realloc(ptr noundef nonnull %6, i64 noundef %21) #35
  store ptr %22, ptr %5, align 8, !tbaa !20
  %.not30.i = icmp eq ptr %22, null
  br i1 %.not30.i, label %23, label %24

23:                                               ; preds = %19
  tail call fastcc void @_ZL14yy_fatal_errorPKcPv(ptr noundef nonnull @.str.13) #34
  unreachable

24:                                               ; preds = %19
  %25 = load i64, ptr %16, align 8, !tbaa !24
  %26 = getelementptr inbounds nuw ptr, ptr %22, i64 %25
  tail call void @llvm.memset.p0.i64(ptr noundef nonnull align 8 dereferenceable(64) %26, i8 0, i64 64, i1 false)
  store i64 %20, ptr %16, align 8, !tbaa !24
  %.pre = load i64, ptr %14, align 8, !tbaa !21
  br label %_ZL43cmCTestResourceGroups_yyensure_buffer_stackPv.exit

_ZL43cmCTestResourceGroups_yyensure_buffer_stackPv.exit: ; preds = %10, %13, %24
  %27 = phi i64 [ 0, %10 ], [ %15, %13 ], [ %.pre, %24 ]
  %28 = phi ptr [ %8, %10 ], [ %6, %13 ], [ %22, %24 ]
  %29 = getelementptr inbounds nuw ptr, ptr %28, i64 %27
  %30 = load ptr, ptr %29, align 8, !tbaa !22
  %31 = icmp eq ptr %30, null
  br i1 %31, label %.critedge29, label %32

32:                                               ; preds = %_ZL43cmCTestResourceGroups_yyensure_buffer_stackPv.exit
  %33 = getelementptr inbounds nuw i8, ptr %1, i64 24
  %34 = getelementptr inbounds nuw i8, ptr %1, i64 48
  %35 = load i8, ptr %34, align 8, !tbaa !36
  %36 = getelementptr inbounds nuw i8, ptr %1, i64 64
  %37 = load ptr, ptr %36, align 8, !tbaa !32
  store i8 %35, ptr %37, align 1, !tbaa !35
  %38 = load ptr, ptr %36, align 8, !tbaa !32
  %39 = load ptr, ptr %5, align 8, !tbaa !20
  %40 = load i64, ptr %33, align 8, !tbaa !21
  %41 = getelementptr inbounds nuw ptr, ptr %39, i64 %40
  %42 = load ptr, ptr %41, align 8, !tbaa !22
  %43 = getelementptr inbounds nuw i8, ptr %42, i64 16
  store ptr %38, ptr %43, align 8, !tbaa !31
  %44 = getelementptr inbounds nuw i8, ptr %1, i64 52
  %45 = load i32, ptr %44, align 4, !tbaa !30
  %46 = getelementptr inbounds nuw i8, ptr %42, i64 28
  store i32 %45, ptr %46, align 4, !tbaa !29
  %47 = add i64 %40, 1
  store i64 %47, ptr %33, align 8, !tbaa !21
  br label %.critedge29

.critedge29:                                      ; preds = %_ZL43cmCTestResourceGroups_yyensure_buffer_stackPv.exit, %32
  %.pr33 = phi ptr [ %39, %32 ], [ %28, %_ZL43cmCTestResourceGroups_yyensure_buffer_stackPv.exit ]
  %48 = phi i64 [ %47, %32 ], [ %27, %_ZL43cmCTestResourceGroups_yyensure_buffer_stackPv.exit ]
  %49 = getelementptr inbounds nuw ptr, ptr %.pr33, i64 %48
  store ptr %0, ptr %49, align 8, !tbaa !22
  %50 = getelementptr inbounds nuw i8, ptr %0, i64 28
  %51 = load i32, ptr %50, align 4, !tbaa !29
  %52 = getelementptr inbounds nuw i8, ptr %1, i64 52
  store i32 %51, ptr %52, align 4, !tbaa !30
  %53 = getelementptr inbounds nuw i8, ptr %0, i64 16
  %54 = load ptr, ptr %53, align 8, !tbaa !31
  %55 = getelementptr inbounds nuw i8, ptr %1, i64 64
  store ptr %54, ptr %55, align 8, !tbaa !32
  %56 = getelementptr inbounds nuw i8, ptr %1, i64 128
  store ptr %54, ptr %56, align 8, !tbaa !33
  %57 = load ptr, ptr %0, align 8, !tbaa !34
  %58 = getelementptr inbounds nuw i8, ptr %1, i64 8
  store ptr %57, ptr %58, align 8, !tbaa !17
  %59 = load i8, ptr %54, align 1, !tbaa !35
  %60 = getelementptr inbounds nuw i8, ptr %1, i64 48
  store i8 %59, ptr %60, align 8, !tbaa !36
  %61 = getelementptr inbounds nuw i8, ptr %1, i64 80
  store i32 1, ptr %61, align 8, !tbaa !65
  br label %62

62:                                               ; preds = %2, %.critedge29
  ret void
}